target datalayout = "e-m:e-p270:32:32-p271:32:32-p272:64:64-i64:64-i128:128-f80:128-n8:16:32:64-S128"
target triple = "x86_64-pc-linux-gnu"

; Function Attrs: nounwind uwtable
define hidden i32 @ScaleFilterReduce(i32 noundef %0, i32 noundef %1, i32 noundef %2, i32 noundef %3, i32 noundef %4) #0 {
  %6 = alloca i32, align 4
  %7 = alloca i32, align 4
  %8 = alloca i32, align 4
  %9 = alloca i32, align 4
  %10 = alloca i32, align 4
  store i32 %0, ptr %6, align 4
  store i32 %1, ptr %7, align 4
  store i32 %2, ptr %8, align 4
  store i32 %3, ptr %9, align 4
  store i32 %4, ptr %10, align 4
  %11 = load i32, ptr %6, align 4
  %12 = icmp slt i32 %11, 0
  br i1 %12, label %13, label %16

13:                                               ; preds = %5
  %14 = load i32, ptr %6, align 4
  %15 = sub nsw i32 0, %14
  store i32 %15, ptr %6, align 4
  br label %16

16:                                               ; preds = %13, %5
  %17 = load i32, ptr %7, align 4
  %18 = icmp slt i32 %17, 0
  br i1 %18, label %19, label %22

19:                                               ; preds = %16
  %20 = load i32, ptr %7, align 4
  %21 = sub nsw i32 0, %20
  store i32 %21, ptr %7, align 4
  br label %22

22:                                               ; preds = %19, %16
  %23 = load i32, ptr %10, align 4
  %24 = icmp eq i32 %23, 3
  br i1 %24, label %25, label %37

25:                                               ; preds = %22
  %26 = load i32, ptr %8, align 4
  %27 = mul nsw i32 %26, 2
  %28 = load i32, ptr %6, align 4
  %29 = icmp sge i32 %27, %28
  br i1 %29, label %35, label %30

30:                                               ; preds = %25
  %31 = load i32, ptr %9, align 4
  %32 = mul nsw i32 %31, 2
  %33 = load i32, ptr %7, align 4
  %34 = icmp sge i32 %32, %33
  br i1 %34, label %35, label %36

35:                                               ; preds = %30, %25
  store i32 2, ptr %10, align 4
  br label %36

36:                                               ; preds = %35, %30
  br label %37

37:                                               ; preds = %36, %22
  %38 = load i32, ptr %10, align 4
  %39 = icmp eq i32 %38, 2
  br i1 %39, label %40, label %59

40:                                               ; preds = %37
  %41 = load i32, ptr %7, align 4
  %42 = icmp eq i32 %41, 1
  br i1 %42, label %43, label %44

43:                                               ; preds = %40
  store i32 1, ptr %10, align 4
  br label %44

44:                                               ; preds = %43, %40
  %45 = load i32, ptr %9, align 4
  %46 = load i32, ptr %7, align 4
  %47 = icmp eq i32 %45, %46
  br i1 %47, label %53, label %48

48:                                               ; preds = %44
  %49 = load i32, ptr %9, align 4
  %50 = mul nsw i32 %49, 3
  %51 = load i32, ptr %7, align 4
  %52 = icmp eq i32 %50, %51
  br i1 %52, label %53, label %54

53:                                               ; preds = %48, %44
  store i32 1, ptr %10, align 4
  br label %54

54:                                               ; preds = %53, %48
  %55 = load i32, ptr %6, align 4
  %56 = icmp eq i32 %55, 1
  br i1 %56, label %57, label %58

57:                                               ; preds = %54
  store i32 0, ptr %10, align 4
  br label %58

58:                                               ; preds = %57, %54
  br label %59

59:                                               ; preds = %58, %37
  %60 = load i32, ptr %10, align 4
  %61 = icmp eq i32 %60, 1
  br i1 %61, label %62, label %77

62:                                               ; preds = %59
  %63 = load i32, ptr %6, align 4
  %64 = icmp eq i32 %63, 1
  br i1 %64, label %65, label %66

65:                                               ; preds = %62
  store i32 0, ptr %10, align 4
  br label %66

66:                                               ; preds = %65, %62
  %67 = load i32, ptr %8, align 4
  %68 = load i32, ptr %6, align 4
  %69 = icmp eq i32 %67, %68
  br i1 %69, label %75, label %70

70:                                               ; preds = %66
  %71 = load i32, ptr %8, align 4
  %72 = mul nsw i32 %71, 3
  %73 = load i32, ptr %6, align 4
  %74 = icmp eq i32 %72, %73
  br i1 %74, label %75, label %76

75:                                               ; preds = %70, %66
  store i32 0, ptr %10, align 4
  br label %76

76:                                               ; preds = %75, %70
  br label %77

77:                                               ; preds = %76, %59
  %78 = load i32, ptr %10, align 4
  ret i32 %78
}