; Function Attrs: mustprogress nofree norecurse nosync nounwind willreturn memory(none) uwtable
define hidden i32 @ScaleFilterReduce(i32 noundef %0, i32 noundef %1, i32 noundef %2, i32 noundef %3, i32 noundef %4) local_unnamed_addr #3 {
  %spec.select = tail call i32 @llvm.abs.i32(i32 %0, i1 true)
  %.024 = tail call i32 @llvm.abs.i32(i32 %1, i1 true)
  switch i32 %4, label %15 [
    i32 3, label %6
    i32 2, label %.thread
  ]

6:                                                ; preds = %5
  %7 = shl nsw i32 %2, 1
  %.not = icmp slt i32 %7, %spec.select
  %8 = shl nsw i32 %3, 1
  %.not33 = icmp slt i32 %8, %.024
  %or.cond = select i1 %.not, i1 %.not33, i1 false
  br i1 %or.cond, label %.thread47, label %.thread

.thread:                                          ; preds = %5, %6
  %9 = icmp eq i32 %.024, 1
  %10 = icmp eq i32 %3, %.024
  %11 = mul nsw i32 %3, 3
  %12 = icmp eq i32 %11, %.024
  %or.cond36 = select i1 %10, i1 true, i1 %12
  %13 = or i1 %9, %or.cond36
  %.3 = select i1 %13, i32 1, i32 2
  %14 = icmp eq i32 %spec.select, 1
  br i1 %14, label %.thread47, label %15

15:                                               ; preds = %5, %.thread
  %.1 = phi i32 [ %.3, %.thread ], [ %4, %5 ]
  %16 = icmp eq i32 %.1, 1
  br i1 %16, label %17, label %.thread47

17:                                               ; preds = %15
  %18 = icmp ne i32 %spec.select, 1
  %19 = icmp ne i32 %2, %spec.select
  %20 = mul nsw i32 %2, 3
  %21 = icmp ne i32 %20, %spec.select
  %or.cond39.not = select i1 %19, i1 %21, i1 false
  %narrow = and i1 %18, %or.cond39.not
  %spec.select41 = zext i1 %narrow to i32
  br label %.thread47

.thread47:                                        ; preds = %.thread, %6, %17, %15
  %.4 = phi i32 [ %.1, %15 ], [ %spec.select41, %17 ], [ 3, %6 ], [ 0, %.thread ]
  ret i32 %.4
}